(dp1
S'bs_file_id'
p2
(dp3
S'type'
p4
S'reference bs_file'
p5
sS'sortable'
p6
I3
sS'sql'
p7
S'INTEGER REFERENCES bs_file(id) ON DELETE CASCADE'
p8
ssS'status'
p9
(dp10
g4
S'string'
p11
sg6
I2
sg7
S'CHAR(512)'
p12
ssS'local_path'
p13
(dp14
S'sortable'
p15
I3
sS'type'
p16
S'string'
p17
sS'sql'
p18
S'CHAR(512)'
p19
ssS'id'
p20
(dp21
g4
S'id'
p22
sg6
I1
sg7
S'INTEGER PRIMARY KEY AUTOINCREMENT'
p23
ss.